target datalayout = "e-m:e-p270:32:32-p271:32:32-p272:64:64-i64:64-i128:128-f80:128-n8:16:32:64-S128"
target triple = "x86_64-unknown-linux-gnu"

%struct.tkip_ctx = type { [5 x i16], i32, i32 }

; Function Attrs: fn_ret_thunk_extern nofree norecurse nosync nounwind null_pointer_is_valid memory(argmem: readwrite)
define internal fastcc void @tkip_mixing_phase1(ptr nocapture noundef readonly %0, ptr nocapture noundef %1, ptr nocapture noundef readonly %2, i32 noundef %3) unnamed_addr #4 align 16 {
  %5 = trunc i32 %3 to i16
  store i16 %5, ptr %1, align 2
  %6 = lshr i32 %3, 16
  %7 = trunc i32 %6 to i16
  %8 = getelementptr i8, ptr %1, i64 2
  store i16 %7, ptr %8, align 2
  %9 = load i16, ptr %2, align 1
  %10 = getelementptr i8, ptr %1, i64 4
  store i16 %9, ptr %10, align 2
  %11 = getelementptr i8, ptr %2, i64 2
  %12 = load i16, ptr %11, align 1
  %13 = getelementptr i8, ptr %1, i64 6
  store i16 %12, ptr %13, align 2
  %14 = getelementptr i8, ptr %2, i64 4
  %15 = load i16, ptr %14, align 1
  %16 = getelementptr i8, ptr %1, i64 8
  store i16 %15, ptr %16, align 2
  %17 = getelementptr i8, ptr %0, i64 4
  %18 = getelementptr i8, ptr %0, i64 8
  %19 = getelementptr i8, ptr %0, i64 12
  %20 = load i16, ptr %1, align 2
  %21 = load i16, ptr %8, align 2
  %22 = load i16, ptr %10, align 2
  %23 = load i16, ptr %13, align 2
  br label %24

24:                                               ; preds = %24, %4
  %25 = phi i32 [ 0, %4 ], [ %110, %24 ]
  %26 = phi i16 [ %15, %4 ], [ %109, %24 ]
  %27 = phi i16 [ %20, %4 ], [ %48, %24 ]
  %28 = phi i16 [ %21, %4 ], [ %63, %24 ]
  %29 = phi i16 [ %22, %4 ], [ %78, %24 ]
  %30 = phi i16 [ %23, %4 ], [ %93, %24 ]
  %31 = shl nuw nsw i32 %25, 1
  %32 = and i32 %31, 2
  %33 = zext nneg i32 %32 to i64
  %34 = getelementptr i8, ptr %0, i64 %33
  %35 = load i16, ptr %34, align 1
  %36 = xor i16 %35, %26
  %37 = zext i16 %36 to i32
  %38 = and i32 %37, 255
  %39 = zext nneg i32 %38 to i64
  %40 = getelementptr [256 x i16], ptr @tkip_sbox, i64 0, i64 %39
  %41 = load i16, ptr %40, align 2
  %42 = lshr i32 %37, 8
  %43 = zext nneg i32 %42 to i64
  %44 = getelementptr [256 x i16], ptr @tkip_sbox, i64 0, i64 %43
  %45 = load i16, ptr %44, align 2
  %46 = tail call i16 @llvm.bswap.i16(i16 %45)
  %47 = xor i16 %46, %41
  %48 = add i16 %47, %27
  store i16 %48, ptr %1, align 2
  %49 = getelementptr i8, ptr %17, i64 %33
  %50 = load i16, ptr %49, align 1
  %51 = xor i16 %48, %50
  %52 = zext i16 %51 to i32
  %53 = and i32 %52, 255
  %54 = zext nneg i32 %53 to i64
  %55 = getelementptr [256 x i16], ptr @tkip_sbox, i64 0, i64 %54
  %56 = load i16, ptr %55, align 2
  %57 = lshr i32 %52, 8
  %58 = zext nneg i32 %57 to i64
  %59 = getelementptr [256 x i16], ptr @tkip_sbox, i64 0, i64 %58
  %60 = load i16, ptr %59, align 2
  %61 = tail call i16 @llvm.bswap.i16(i16 %60)
  %62 = xor i16 %61, %56
  %63 = add i16 %62, %28
  store i16 %63, ptr %8, align 2
  %64 = getelementptr i8, ptr %18, i64 %33
  %65 = load i16, ptr %64, align 1
  %66 = xor i16 %63, %65
  %67 = zext i16 %66 to i32
  %68 = and i32 %67, 255
  %69 = zext nneg i32 %68 to i64
  %70 = getelementptr [256 x i16], ptr @tkip_sbox, i64 0, i64 %69
  %71 = load i16, ptr %70, align 2
  %72 = lshr i32 %67, 8
  %73 = zext nneg i32 %72 to i64
  %74 = getelementptr [256 x i16], ptr @tkip_sbox, i64 0, i64 %73
  %75 = load i16, ptr %74, align 2
  %76 = tail call i16 @llvm.bswap.i16(i16 %75)
  %77 = xor i16 %76, %71
  %78 = add i16 %77, %29
  store i16 %78, ptr %10, align 2
  %79 = getelementptr i8, ptr %19, i64 %33
  %80 = load i16, ptr %79, align 1
  %81 = xor i16 %78, %80
  %82 = zext i16 %81 to i32
  %83 = and i32 %82, 255
  %84 = zext nneg i32 %83 to i64
  %85 = getelementptr [256 x i16], ptr @tkip_sbox, i64 0, i64 %84
  %86 = load i16, ptr %85, align 2
  %87 = lshr i32 %82, 8
  %88 = zext nneg i32 %87 to i64
  %89 = getelementptr [256 x i16], ptr @tkip_sbox, i64 0, i64 %88
  %90 = load i16, ptr %89, align 2
  %91 = tail call i16 @llvm.bswap.i16(i16 %90)
  %92 = xor i16 %91, %86
  %93 = add i16 %92, %30
  store i16 %93, ptr %13, align 2
  %94 = load i16, ptr %34, align 1
  %95 = xor i16 %93, %94
  %96 = zext i16 %95 to i32
  %97 = and i32 %96, 255
  %98 = zext nneg i32 %97 to i64
  %99 = getelementptr [256 x i16], ptr @tkip_sbox, i64 0, i64 %98
  %100 = load i16, ptr %99, align 2
  %101 = lshr i32 %96, 8
  %102 = zext nneg i32 %101 to i64
  %103 = getelementptr [256 x i16], ptr @tkip_sbox, i64 0, i64 %102
  %104 = load i16, ptr %103, align 2
  %105 = tail call i16 @llvm.bswap.i16(i16 %104)
  %106 = xor i16 %105, %100
  %107 = trunc i32 %25 to i16
  %108 = add i16 %26, %107
  %109 = add i16 %108, %106
  store i16 %109, ptr %16, align 2
  %110 = add nuw nsw i32 %25, 1
  %111 = icmp eq i32 %110, 8
  br i1 %111, label %112, label %24, !llvm.loop !7

112:                                              ; preds = %24
  %113 = getelementptr inbounds i8, ptr %1, i64 16
  store i32 1, ptr %113, align 4
  %114 = getelementptr inbounds i8, ptr %1, i64 12
  store i32 %3, ptr %114, align 4
  ret void
}

; Function Attrs: fn_ret_thunk_extern nofree norecurse nosync nounwind null_pointer_is_valid memory(argmem: readwrite)
define dso_local void @ieee80211_get_tkip_rx_p1k(ptr nocapture noundef readonly %0, ptr nocapture noundef readonly %1, i32 noundef %2, ptr nocapture noundef writeonly %3) #4 align 16 {
  %5 = alloca %struct.tkip_ctx, align 4
  %6 = getelementptr inbounds i8, ptr %0, i64 20
  call void @llvm.lifetime.start.p0(i64 20, ptr nonnull %5) #13
  call void @llvm.memset.p0.i64(ptr noundef nonnull align 4 dereferenceable(20) %5, i8 0, i64 20, i1 false), !annotation !6
  call fastcc void @tkip_mixing_phase1(ptr noundef %6, ptr noundef nonnull %5, ptr noundef %1, i32 noundef %2)
  call void @llvm.memcpy.p0.p0.i64(ptr noundef align 2 dereferenceable(10) %3, ptr noundef nonnull align 4 dereferenceable(10) %5, i64 10, i1 false)
  call void @llvm.lifetime.end.p0(i64 20, ptr nonnull %5) #13
  ret void
}