; Function Attrs: fn_ret_thunk_extern nofree norecurse nosync nounwind null_pointer_is_valid memory(argmem: readwrite)
define dso_local void @ieee80211_get_tkip_rx_p1k(ptr nocapture noundef readonly %0, ptr nocapture noundef readonly %1, i32 noundef %2, ptr nocapture noundef writeonly %3) #4 align 16 {
  %5 = getelementptr inbounds i8, ptr %0, i64 20
  %6 = trunc i32 %2 to i16
  %7 = lshr i32 %2, 16
  %8 = trunc i32 %7 to i16
  %9 = load i16, ptr %1, align 1
  %10 = getelementptr i8, ptr %1, i64 2
  %11 = load i16, ptr %10, align 1
  %12 = getelementptr i8, ptr %1, i64 4
  %13 = load i16, ptr %12, align 1
  %14 = getelementptr i8, ptr %0, i64 24
  %15 = getelementptr i8, ptr %0, i64 28
  %16 = getelementptr i8, ptr %0, i64 32
  br label %17

17:                                               ; preds = %17, %4
  %18 = phi i32 [ 0, %4 ], [ %102, %17 ]
  %19 = phi i16 [ %13, %4 ], [ %101, %17 ]
  %20 = phi i16 [ %6, %4 ], [ %41, %17 ]
  %21 = phi i16 [ %8, %4 ], [ %56, %17 ]
  %22 = phi i16 [ %9, %4 ], [ %71, %17 ]
  %23 = phi i16 [ %11, %4 ], [ %86, %17 ]
  %24 = shl nuw nsw i32 %18, 1
  %25 = and i32 %24, 2
  %26 = zext nneg i32 %25 to i64
  %27 = getelementptr i8, ptr %5, i64 %26
  %28 = load i16, ptr %27, align 1
  %29 = xor i16 %28, %19
  %30 = zext i16 %29 to i32
  %31 = and i32 %30, 255
  %32 = zext nneg i32 %31 to i64
  %33 = getelementptr [256 x i16], ptr @tkip_sbox, i64 0, i64 %32
  %34 = load i16, ptr %33, align 2
  %35 = lshr i32 %30, 8
  %36 = zext nneg i32 %35 to i64
  %37 = getelementptr [256 x i16], ptr @tkip_sbox, i64 0, i64 %36
  %38 = load i16, ptr %37, align 2
  %39 = tail call i16 @llvm.bswap.i16(i16 %38)
  %40 = xor i16 %39, %34
  %41 = add i16 %40, %20
  %42 = getelementptr i8, ptr %14, i64 %26
  %43 = load i16, ptr %42, align 1
  %44 = xor i16 %41, %43
  %45 = zext i16 %44 to i32
  %46 = and i32 %45, 255
  %47 = zext nneg i32 %46 to i64
  %48 = getelementptr [256 x i16], ptr @tkip_sbox, i64 0, i64 %47
  %49 = load i16, ptr %48, align 2
  %50 = lshr i32 %45, 8
  %51 = zext nneg i32 %50 to i64
  %52 = getelementptr [256 x i16], ptr @tkip_sbox, i64 0, i64 %51
  %53 = load i16, ptr %52, align 2
  %54 = tail call i16 @llvm.bswap.i16(i16 %53)
  %55 = xor i16 %54, %49
  %56 = add i16 %55, %21
  %57 = getelementptr i8, ptr %15, i64 %26
  %58 = load i16, ptr %57, align 1
  %59 = xor i16 %56, %58
  %60 = zext i16 %59 to i32
  %61 = and i32 %60, 255
  %62 = zext nneg i32 %61 to i64
  %63 = getelementptr [256 x i16], ptr @tkip_sbox, i64 0, i64 %62
  %64 = load i16, ptr %63, align 2
  %65 = lshr i32 %60, 8
  %66 = zext nneg i32 %65 to i64
  %67 = getelementptr [256 x i16], ptr @tkip_sbox, i64 0, i64 %66
  %68 = load i16, ptr %67, align 2
  %69 = tail call i16 @llvm.bswap.i16(i16 %68)
  %70 = xor i16 %69, %64
  %71 = add i16 %70, %22
  %72 = getelementptr i8, ptr %16, i64 %26
  %73 = load i16, ptr %72, align 1
  %74 = xor i16 %71, %73
  %75 = zext i16 %74 to i32
  %76 = and i32 %75, 255
  %77 = zext nneg i32 %76 to i64
  %78 = getelementptr [256 x i16], ptr @tkip_sbox, i64 0, i64 %77
  %79 = load i16, ptr %78, align 2
  %80 = lshr i32 %75, 8
  %81 = zext nneg i32 %80 to i64
  %82 = getelementptr [256 x i16], ptr @tkip_sbox, i64 0, i64 %81
  %83 = load i16, ptr %82, align 2
  %84 = tail call i16 @llvm.bswap.i16(i16 %83)
  %85 = xor i16 %84, %79
  %86 = add i16 %85, %23
  %87 = xor i16 %86, %28
  %88 = zext i16 %87 to i32
  %89 = and i32 %88, 255
  %90 = zext nneg i32 %89 to i64
  %91 = getelementptr [256 x i16], ptr @tkip_sbox, i64 0, i64 %90
  %92 = load i16, ptr %91, align 2
  %93 = lshr i32 %88, 8
  %94 = zext nneg i32 %93 to i64
  %95 = getelementptr [256 x i16], ptr @tkip_sbox, i64 0, i64 %94
  %96 = load i16, ptr %95, align 2
  %97 = tail call i16 @llvm.bswap.i16(i16 %96)
  %98 = xor i16 %97, %92
  %99 = trunc i32 %18 to i16
  %100 = add i16 %19, %99
  %101 = add i16 %100, %98
  %102 = add nuw nsw i32 %18, 1
  %103 = icmp eq i32 %102, 8
  br i1 %103, label %tkip_mixing_phase1.exit, label %17, !llvm.loop !6

tkip_mixing_phase1.exit:                          ; preds = %17
  store i16 %41, ptr %3, align 2
  %.sroa.6.0..sroa_idx = getelementptr inbounds i8, ptr %3, i64 2
  store i16 %56, ptr %.sroa.6.0..sroa_idx, align 2
  %.sroa.8.0..sroa_idx = getelementptr inbounds i8, ptr %3, i64 4
  store i16 %71, ptr %.sroa.8.0..sroa_idx, align 2
  %.sroa.10.0..sroa_idx = getelementptr inbounds i8, ptr %3, i64 6
  store i16 %86, ptr %.sroa.10.0..sroa_idx, align 2
  %.sroa.12.0..sroa_idx = getelementptr inbounds i8, ptr %3, i64 8
  store i16 %101, ptr %.sroa.12.0..sroa_idx, align 2
  ret void
}